target datalayout = "e-m:e-p270:32:32-p271:32:32-p272:64:64-i64:64-i128:128-f80:128-n8:16:32:64-S128"
target triple = "x86_64-pc-linux-gnu"

%struct.UConverterSharedData = type { i32, i32, ptr, ptr, i8, i8, ptr, i32, %struct.UConverterMBCSTable }
%struct.UConverterMBCSTable = type { i8, i8, i8, i32, ptr, ptr, ptr, ptr, ptr, ptr, [64 x i16], ptr, ptr, i32, i8, i8, i8, i16, i32, ptr, ptr, ptr, ptr }

; Function Attrs: mustprogress uwtable
define i32 @ucnv_MBCSSimpleGetNextUChar_77(ptr noundef %0, ptr noundef %1, i32 noundef %2, i8 noundef signext %3) #0 {
  %5 = alloca i32, align 4
  %6 = alloca ptr, align 8
  %7 = alloca ptr, align 8
  %8 = alloca i32, align 4
  %9 = alloca i8, align 1
  %10 = alloca ptr, align 8
  %11 = alloca ptr, align 8
  %12 = alloca i32, align 4
  %13 = alloca i8, align 1
  %14 = alloca i8, align 1
  %15 = alloca i32, align 4
  %16 = alloca i32, align 4
  %17 = alloca i32, align 4
  %18 = alloca i32, align 4
  %19 = alloca ptr, align 8
  store ptr %0, ptr %6, align 8, !tbaa !3
  store ptr %1, ptr %7, align 8, !tbaa !39
  store i32 %2, ptr %8, align 4, !tbaa !28
  store i8 %3, ptr %9, align 1, !tbaa !40
  call void @llvm.lifetime.start.p0(i64 8, ptr %10) #10
  call void @llvm.lifetime.start.p0(i64 8, ptr %11) #10
  call void @llvm.lifetime.start.p0(i64 4, ptr %12) #10
  call void @llvm.lifetime.start.p0(i64 1, ptr %13) #10
  call void @llvm.lifetime.start.p0(i64 1, ptr %14) #10
  call void @llvm.lifetime.start.p0(i64 4, ptr %15) #10
  call void @llvm.lifetime.start.p0(i64 4, ptr %16) #10
  call void @llvm.lifetime.start.p0(i64 4, ptr %17) #10
  %20 = load i32, ptr %8, align 4, !tbaa !28
  %21 = icmp sle i32 %20, 0
  br i1 %21, label %22, label %23

22:                                               ; preds = %4
  store i32 65535, ptr %5, align 4
  store i32 1, ptr %18, align 4
  br label %229

23:                                               ; preds = %4
  %24 = load ptr, ptr %6, align 8, !tbaa !3
  %25 = getelementptr inbounds nuw %struct.UConverterSharedData, ptr %24, i32 0, i32 8
  %26 = getelementptr inbounds nuw %struct.UConverterMBCSTable, ptr %25, i32 0, i32 4
  %27 = load ptr, ptr %26, align 8, !tbaa !75
  store ptr %27, ptr %10, align 8, !tbaa !41
  %28 = load ptr, ptr %6, align 8, !tbaa !3
  %29 = getelementptr inbounds nuw %struct.UConverterSharedData, ptr %28, i32 0, i32 8
  %30 = getelementptr inbounds nuw %struct.UConverterMBCSTable, ptr %29, i32 0, i32 6
  %31 = load ptr, ptr %30, align 8, !tbaa !76
  store ptr %31, ptr %11, align 8, !tbaa !24
  store i32 0, ptr %12, align 4, !tbaa !28
  %32 = load ptr, ptr %6, align 8, !tbaa !3
  %33 = getelementptr inbounds nuw %struct.UConverterSharedData, ptr %32, i32 0, i32 8
  %34 = getelementptr inbounds nuw %struct.UConverterMBCSTable, ptr %33, i32 0, i32 1
  %35 = load i8, ptr %34, align 1, !tbaa !80
  store i8 %35, ptr %13, align 1, !tbaa !40
  store i32 0, ptr %16, align 4, !tbaa !28
  br label %36

36:                                               ; preds = %201, %23
  %37 = load ptr, ptr %10, align 8, !tbaa !41
  %38 = load i8, ptr %13, align 1, !tbaa !40
  %39 = zext i8 %38 to i64
  %40 = getelementptr inbounds nuw [256 x i32], ptr %37, i64 %39
  %41 = load ptr, ptr %7, align 8, !tbaa !39
  %42 = load i32, ptr %16, align 4, !tbaa !28
  %43 = add nsw i32 %42, 1
  store i32 %43, ptr %16, align 4, !tbaa !28
  %44 = sext i32 %42 to i64
  %45 = getelementptr inbounds i8, ptr %41, i64 %44
  %46 = load i8, ptr %45, align 1, !tbaa !40
  %47 = zext i8 %46 to i64
  %48 = getelementptr inbounds nuw [256 x i32], ptr %40, i64 0, i64 %47
  %49 = load i32, ptr %48, align 4, !tbaa !28
  store i32 %49, ptr %17, align 4, !tbaa !28
  %50 = load i32, ptr %17, align 4, !tbaa !28
  %51 = icmp sge i32 %50, 0
  br i1 %51, label %52, label %65

52:                                               ; preds = %36
  %53 = load i32, ptr %17, align 4, !tbaa !28
  %54 = lshr i32 %53, 24
  %55 = trunc i32 %54 to i8
  store i8 %55, ptr %13, align 1, !tbaa !40
  %56 = load i32, ptr %17, align 4, !tbaa !28
  %57 = and i32 %56, 16777215
  %58 = load i32, ptr %12, align 4, !tbaa !28
  %59 = add i32 %58, %57
  store i32 %59, ptr %12, align 4, !tbaa !28
  %60 = load i32, ptr %16, align 4, !tbaa !28
  %61 = load i32, ptr %8, align 4, !tbaa !28
  %62 = icmp eq i32 %60, %61
  br i1 %62, label %63, label %64

63:                                               ; preds = %52
  store i32 65535, ptr %5, align 4
  store i32 1, ptr %18, align 4
  br label %229

64:                                               ; preds = %52
  br label %201

65:                                               ; preds = %36
  %66 = load i32, ptr %17, align 4, !tbaa !28
  %67 = lshr i32 %66, 20
  %68 = and i32 %67, 15
  %69 = trunc i32 %68 to i8
  store i8 %69, ptr %14, align 1, !tbaa !40
  %70 = load i8, ptr %14, align 1, !tbaa !40
  %71 = zext i8 %70 to i32
  %72 = icmp eq i32 %71, 4
  br i1 %72, label %73, label %94

73:                                               ; preds = %65
  %74 = load i32, ptr %17, align 4, !tbaa !28
  %75 = trunc i32 %74 to i16
  %76 = zext i16 %75 to i32
  %77 = load i32, ptr %12, align 4, !tbaa !28
  %78 = add i32 %77, %76
  store i32 %78, ptr %12, align 4, !tbaa !28
  %79 = load ptr, ptr %11, align 8, !tbaa !24
  %80 = load i32, ptr %12, align 4, !tbaa !28
  %81 = zext i32 %80 to i64
  %82 = getelementptr inbounds nuw i16, ptr %79, i64 %81
  %83 = load i16, ptr %82, align 2, !tbaa !26
  %84 = zext i16 %83 to i32
  store i32 %84, ptr %15, align 4, !tbaa !28
  %85 = load i32, ptr %15, align 4, !tbaa !28
  %86 = icmp ne i32 %85, 65534
  br i1 %86, label %87, label %88

87:                                               ; preds = %73
  br label %93

88:                                               ; preds = %73
  %89 = load ptr, ptr %6, align 8, !tbaa !3
  %90 = getelementptr inbounds nuw %struct.UConverterSharedData, ptr %89, i32 0, i32 8
  %91 = load i32, ptr %12, align 4, !tbaa !28
  %92 = call noundef i32 @_ZL20ucnv_MBCSGetFallbackP19UConverterMBCSTablej(ptr noundef %90, i32 noundef %91)
  store i32 %92, ptr %15, align 4, !tbaa !28
  br label %93

93:                                               ; preds = %88, %87
  br label %202

94:                                               ; preds = %65
  %95 = load i8, ptr %14, align 1, !tbaa !40
  %96 = zext i8 %95 to i32
  %97 = icmp eq i32 %96, 0
  br i1 %97, label %98, label %102

98:                                               ; preds = %94
  %99 = load i32, ptr %17, align 4, !tbaa !28
  %100 = trunc i32 %99 to i16
  %101 = zext i16 %100 to i32
  store i32 %101, ptr %15, align 4, !tbaa !28
  br label %202

102:                                              ; preds = %94
  %103 = load i8, ptr %14, align 1, !tbaa !40
  %104 = zext i8 %103 to i32
  %105 = icmp eq i32 %104, 5
  br i1 %105, label %106, label %165

106:                                              ; preds = %102
  %107 = load i32, ptr %17, align 4, !tbaa !28
  %108 = trunc i32 %107 to i16
  %109 = zext i16 %108 to i32
  %110 = load i32, ptr %12, align 4, !tbaa !28
  %111 = add i32 %110, %109
  store i32 %111, ptr %12, align 4, !tbaa !28
  %112 = load ptr, ptr %11, align 8, !tbaa !24
  %113 = load i32, ptr %12, align 4, !tbaa !28
  %114 = add i32 %113, 1
  store i32 %114, ptr %12, align 4, !tbaa !28
  %115 = zext i32 %113 to i64
  %116 = getelementptr inbounds nuw i16, ptr %112, i64 %115
  %117 = load i16, ptr %116, align 2, !tbaa !26
  %118 = zext i16 %117 to i32
  store i32 %118, ptr %15, align 4, !tbaa !28
  %119 = load i32, ptr %15, align 4, !tbaa !28
  %120 = icmp slt i32 %119, 55296
  br i1 %120, label %121, label %122

121:                                              ; preds = %106
  br label %164

122:                                              ; preds = %106
  br i1 true, label %123, label %126

123:                                              ; preds = %122
  %124 = load i32, ptr %15, align 4, !tbaa !28
  %125 = icmp sle i32 %124, 57343
  br i1 %125, label %129, label %141

126:                                              ; preds = %122
  %127 = load i32, ptr %15, align 4, !tbaa !28
  %128 = icmp sle i32 %127, 56319
  br i1 %128, label %129, label %141

129:                                              ; preds = %126, %123
  %130 = load i32, ptr %15, align 4, !tbaa !28
  %131 = and i32 %130, 1023
  %132 = shl i32 %131, 10
  %133 = load ptr, ptr %11, align 8, !tbaa !24
  %134 = load i32, ptr %12, align 4, !tbaa !28
  %135 = zext i32 %134 to i64
  %136 = getelementptr inbounds nuw i16, ptr %133, i64 %135
  %137 = load i16, ptr %136, align 2, !tbaa !26
  %138 = zext i16 %137 to i32
  %139 = add nsw i32 %132, %138
  %140 = add nsw i32 %139, 9216
  store i32 %140, ptr %15, align 4, !tbaa !28
  br label %163

141:                                              ; preds = %126, %123
  br i1 true, label %142, label %146

142:                                              ; preds = %141
  %143 = load i32, ptr %15, align 4, !tbaa !28
  %144 = and i32 %143, 65534
  %145 = icmp eq i32 %144, 57344
  br i1 %145, label %149, label %156

146:                                              ; preds = %141
  %147 = load i32, ptr %15, align 4, !tbaa !28
  %148 = icmp eq i32 %147, 57344
  br i1 %148, label %149, label %156

149:                                              ; preds = %146, %142
  %150 = load ptr, ptr %11, align 8, !tbaa !24
  %151 = load i32, ptr %12, align 4, !tbaa !28
  %152 = zext i32 %151 to i64
  %153 = getelementptr inbounds nuw i16, ptr %150, i64 %152
  %154 = load i16, ptr %153, align 2, !tbaa !26
  %155 = zext i16 %154 to i32
  store i32 %155, ptr %15, align 4, !tbaa !28
  br label %162

156:                                              ; preds = %146, %142
  %157 = load i32, ptr %15, align 4, !tbaa !28
  %158 = icmp eq i32 %157, 65535
  br i1 %158, label %159, label %160

159:                                              ; preds = %156
  store i32 65535, ptr %5, align 4
  store i32 1, ptr %18, align 4
  br label %229

160:                                              ; preds = %156
  store i32 65534, ptr %15, align 4, !tbaa !28
  br label %161

161:                                              ; preds = %160
  br label %162

162:                                              ; preds = %161, %149
  br label %163

163:                                              ; preds = %162, %129
  br label %164

164:                                              ; preds = %163, %121
  br label %202

165:                                              ; preds = %102
  %166 = load i8, ptr %14, align 1, !tbaa !40
  %167 = zext i8 %166 to i32
  %168 = icmp eq i32 %167, 1
  br i1 %168, label %169, label %173

169:                                              ; preds = %165
  %170 = load i32, ptr %17, align 4, !tbaa !28
  %171 = and i32 %170, 1048575
  %172 = add nsw i32 65536, %171
  store i32 %172, ptr %15, align 4, !tbaa !28
  br label %202

173:                                              ; preds = %165
  %174 = load i8, ptr %14, align 1, !tbaa !40
  %175 = zext i8 %174 to i32
  %176 = icmp eq i32 %175, 2
  br i1 %176, label %177, label %181

177:                                              ; preds = %173
  %178 = load i32, ptr %17, align 4, !tbaa !28
  %179 = trunc i32 %178 to i16
  %180 = zext i16 %179 to i32
  store i32 %180, ptr %15, align 4, !tbaa !28
  br label %202

181:                                              ; preds = %173
  %182 = load i8, ptr %14, align 1, !tbaa !40
  %183 = zext i8 %182 to i32
  %184 = icmp eq i32 %183, 3
  br i1 %184, label %185, label %189

185:                                              ; preds = %181
  %186 = load i32, ptr %17, align 4, !tbaa !28
  %187 = and i32 %186, 1048575
  %188 = add nsw i32 65536, %187
  store i32 %188, ptr %15, align 4, !tbaa !28
  br label %202

189:                                              ; preds = %181
  %190 = load i8, ptr %14, align 1, !tbaa !40
  %191 = zext i8 %190 to i32
  %192 = icmp eq i32 %191, 6
  br i1 %192, label %193, label %194

193:                                              ; preds = %189
  store i32 65534, ptr %15, align 4, !tbaa !28
  br label %202

194:                                              ; preds = %189
  br label %195

195:                                              ; preds = %194
  br label %196

196:                                              ; preds = %195
  br label %197

197:                                              ; preds = %196
  br label %198

198:                                              ; preds = %197
  br label %199

199:                                              ; preds = %198
  br label %200

200:                                              ; preds = %199
  store i32 65535, ptr %5, align 4
  store i32 1, ptr %18, align 4
  br label %229

201:                                              ; preds = %64
  br label %36, !llvm.loop !111

202:                                              ; preds = %193, %185, %177, %169, %164, %98, %93
  %203 = load i32, ptr %16, align 4, !tbaa !28
  %204 = load i32, ptr %8, align 4, !tbaa !28
  %205 = icmp ne i32 %203, %204
  br i1 %205, label %206, label %207

206:                                              ; preds = %202
  store i32 65535, ptr %5, align 4
  store i32 1, ptr %18, align 4
  br label %229

207:                                              ; preds = %202
  %208 = load i32, ptr %15, align 4, !tbaa !28
  %209 = icmp eq i32 %208, 65534
  br i1 %209, label %210, label %227

210:                                              ; preds = %207
  call void @llvm.lifetime.start.p0(i64 8, ptr %19) #10
  %211 = load ptr, ptr %6, align 8, !tbaa !3
  %212 = getelementptr inbounds nuw %struct.UConverterSharedData, ptr %211, i32 0, i32 8
  %213 = getelementptr inbounds nuw %struct.UConverterMBCSTable, ptr %212, i32 0, i32 22
  %214 = load ptr, ptr %213, align 8, !tbaa !109
  store ptr %214, ptr %19, align 8, !tbaa !41
  %215 = load ptr, ptr %19, align 8, !tbaa !41
  %216 = icmp ne ptr %215, null
  br i1 %216, label %217, label %223

217:                                              ; preds = %210
  %218 = load ptr, ptr %19, align 8, !tbaa !41
  %219 = load ptr, ptr %7, align 8, !tbaa !39
  %220 = load i32, ptr %8, align 4, !tbaa !28
  %221 = load i8, ptr %9, align 1, !tbaa !40
  %222 = call i32 @ucnv_extSimpleMatchToU_77(ptr noundef %218, ptr noundef %219, i32 noundef %220, i8 noundef signext %221)
  store i32 %222, ptr %5, align 4
  store i32 1, ptr %18, align 4
  br label %224

223:                                              ; preds = %210
  store i32 0, ptr %18, align 4
  br label %224

224:                                              ; preds = %223, %217
  call void @llvm.lifetime.end.p0(i64 8, ptr %19) #10
  %225 = load i32, ptr %18, align 4
  switch i32 %225, label %229 [
    i32 0, label %226
  ]

226:                                              ; preds = %224
  br label %227

227:                                              ; preds = %226, %207
  %228 = load i32, ptr %15, align 4, !tbaa !28
  store i32 %228, ptr %5, align 4
  store i32 1, ptr %18, align 4
  br label %229

229:                                              ; preds = %227, %224, %206, %200, %159, %63, %22
  call void @llvm.lifetime.end.p0(i64 4, ptr %17) #10
  call void @llvm.lifetime.end.p0(i64 4, ptr %16) #10
  call void @llvm.lifetime.end.p0(i64 4, ptr %15) #10
  call void @llvm.lifetime.end.p0(i64 1, ptr %14) #10
  call void @llvm.lifetime.end.p0(i64 1, ptr %13) #10
  call void @llvm.lifetime.end.p0(i64 4, ptr %12) #10
  call void @llvm.lifetime.end.p0(i64 8, ptr %11) #10
  call void @llvm.lifetime.end.p0(i64 8, ptr %10) #10
  %230 = load i32, ptr %5, align 4
  ret i32 %230
}