; Function Attrs: mustprogress uwtable
define i32 @ucnv_MBCSSimpleGetNextUChar_77(ptr noundef readonly captures(none) %0, ptr noundef %1, i32 noundef %2, i8 noundef signext %3) local_unnamed_addr #0 {
  %5 = icmp slt i32 %2, 1
  br i1 %5, label %.thread, label %6

6:                                                ; preds = %4
  %7 = getelementptr inbounds nuw i8, ptr %0, i64 48
  %8 = getelementptr inbounds nuw i8, ptr %0, i64 56
  %9 = load ptr, ptr %8, align 8, !tbaa !88
  %10 = getelementptr inbounds nuw i8, ptr %0, i64 72
  %11 = load ptr, ptr %10, align 8, !tbaa !73
  %12 = getelementptr inbounds nuw i8, ptr %0, i64 49
  %13 = load i8, ptr %12, align 1, !tbaa !76
  %14 = zext nneg i32 %2 to i64
  br label %15

15:                                               ; preds = %23, %6
  %indvars.iv = phi i64 [ %indvars.iv.next, %23 ], [ 0, %6 ]
  %.061 = phi i8 [ %25, %23 ], [ %13, %6 ]
  %.058 = phi i32 [ %27, %23 ], [ 0, %6 ]
  %16 = zext i8 %.061 to i64
  %indvars.iv.next = add nuw nsw i64 %indvars.iv, 1
  %17 = getelementptr inbounds nuw i8, ptr %1, i64 %indvars.iv
  %18 = load i8, ptr %17, align 1, !tbaa !28
  %19 = zext i8 %18 to i64
  %20 = getelementptr inbounds nuw [256 x i32], ptr %9, i64 %16, i64 %19
  %21 = load i32, ptr %20, align 4, !tbaa !27
  %22 = icmp sgt i32 %21, -1
  br i1 %22, label %23, label %29

23:                                               ; preds = %15
  %24 = lshr i32 %21, 24
  %25 = trunc nuw nsw i32 %24 to i8
  %26 = and i32 %21, 16777215
  %27 = add i32 %26, %.058
  %28 = icmp eq i64 %indvars.iv.next, %14
  br i1 %28, label %.thread, label %15, !llvm.loop !89

29:                                               ; preds = %15
  %30 = trunc nuw nsw i64 %indvars.iv.next to i32
  %31 = lshr i32 %21, 20
  %32 = and i32 %31, 15
  switch i32 %32, label %.thread [
    i32 4, label %33
    i32 0, label %42
    i32 5, label %44
    i32 1, label %74
    i32 2, label %77
    i32 3, label %79
    i32 6, label %82
  ]

33:                                               ; preds = %29
  %34 = and i32 %21, 65535
  %35 = add i32 %34, %.058
  %36 = zext i32 %35 to i64
  %37 = getelementptr inbounds nuw i16, ptr %11, i64 %36
  %38 = load i16, ptr %37, align 2, !tbaa !17
  %39 = zext i16 %38 to i32
  %.not = icmp eq i16 %38, -2
  br i1 %.not, label %40, label %82

40:                                               ; preds = %33
  %41 = tail call fastcc noundef i32 @_ZL20ucnv_MBCSGetFallbackP19UConverterMBCSTablej(ptr noundef nonnull %7, i32 noundef %35)
  br label %82

42:                                               ; preds = %29
  %43 = and i32 %21, 65535
  br label %82

44:                                               ; preds = %29
  %45 = and i32 %21, 65535
  %46 = add i32 %45, %.058
  %47 = add i32 %46, 1
  %48 = zext i32 %46 to i64
  %49 = getelementptr inbounds nuw i16, ptr %11, i64 %48
  %50 = load i16, ptr %49, align 2, !tbaa !17
  %51 = zext i16 %50 to i32
  %52 = icmp ult i16 %50, -10240
  br i1 %52, label %82, label %53

53:                                               ; preds = %44
  %54 = icmp samesign ult i16 %50, -8192
  br i1 %54, label %55, label %64

55:                                               ; preds = %53
  %56 = shl nuw nsw i32 %51, 10
  %57 = and i32 %56, 1047552
  %58 = zext i32 %47 to i64
  %59 = getelementptr inbounds nuw i16, ptr %11, i64 %58
  %60 = load i16, ptr %59, align 2, !tbaa !17
  %61 = zext i16 %60 to i32
  %62 = add nuw nsw i32 %57, 9216
  %63 = add nuw nsw i32 %62, %61
  br label %82

64:                                               ; preds = %53
  %65 = and i32 %51, 65534
  %66 = icmp eq i32 %65, 57344
  br i1 %66, label %67, label %72

67:                                               ; preds = %64
  %68 = zext i32 %47 to i64
  %69 = getelementptr inbounds nuw i16, ptr %11, i64 %68
  %70 = load i16, ptr %69, align 2, !tbaa !17
  %71 = zext i16 %70 to i32
  br label %82

72:                                               ; preds = %64
  %73 = icmp eq i16 %50, -1
  br i1 %73, label %.thread, label %82

74:                                               ; preds = %29
  %75 = and i32 %21, 1048575
  %76 = add nuw nsw i32 %75, 65536
  br label %82

77:                                               ; preds = %29
  %78 = and i32 %21, 65535
  br label %82

79:                                               ; preds = %29
  %80 = and i32 %21, 1048575
  %81 = add nuw nsw i32 %80, 65536
  br label %82

82:                                               ; preds = %29, %72, %44, %67, %55, %40, %33, %79, %77, %74, %42
  %.060 = phi i32 [ %39, %33 ], [ %41, %40 ], [ %43, %42 ], [ %51, %44 ], [ %63, %55 ], [ %71, %67 ], [ %76, %74 ], [ %78, %77 ], [ %81, %79 ], [ 65534, %72 ], [ 65534, %29 ]
  %.not71 = icmp eq i32 %2, %30
  br i1 %.not71, label %83, label %.thread

83:                                               ; preds = %82
  %84 = icmp eq i32 %.060, 65534
  br i1 %84, label %85, label %.thread

85:                                               ; preds = %83
  %86 = getelementptr inbounds nuw i8, ptr %0, i64 288
  %87 = load ptr, ptr %86, align 8, !tbaa !67
  %.not72 = icmp eq ptr %87, null
  br i1 %.not72, label %.thread, label %88

88:                                               ; preds = %85
  %89 = tail call i32 @ucnv_extSimpleMatchToU_77(ptr noundef nonnull %87, ptr noundef nonnull %1, i32 noundef %2, i8 noundef signext %3)
  br label %.thread

.thread:                                          ; preds = %23, %85, %83, %88, %82, %29, %72, %4
  %.0 = phi i32 [ %89, %88 ], [ 65535, %4 ], [ 65535, %72 ], [ 65535, %29 ], [ 65535, %82 ], [ %.060, %83 ], [ 65534, %85 ], [ 65535, %23 ]
  ret i32 %.0
}